Certificate:
    Data:
        Version: 3 (0x2)
        Serial Number:
            e4:9b:e5:84:62:09:54:ba
        Signature Algorithm: sha1WithRSAEncryption
        Issuer: C=US, ST=New York, O=Basho, CN=My CA
        Validity
            Not Before: Apr 10 21:42:50 2012 GMT
            Not After : Apr 10 21:42:50 2013 GMT
        Subject: C=US, ST=New York, L=Potsdam, O=Basho, CN=My intermediate CA
        Subject Public Key Info:
            Public Key Algorithm: rsaEncryption
                Public-Key: (1024 bit)
                Modulus:
                    00:bd:f1:1b:57:ab:93:cf:00:ba:f5:d3:fd:8a:57:
                    49:fc:f6:b5:ef:93:63:31:fb:93:5e:4b:2a:26:29:
                    e6:b2:44:38:43:45:d8:17:c3:ea:96:68:0a:98:8f:
                    97:8a:a1:62:27:62:15:c0:41:58:18:fb:74:7d:22:
                    ac:0f:68:ad:ef:e5:e5:0d:ee:1d:16:b5:f7:9f:b2:
                    e4:f2:a0:65:d3:e6:cb:ec:55:94:8e:ad:b2:e8:d4:
                    ae:dc:c8:63:35:99:70:27:c2:85:8e:28:13:c1:47:
                    3f:13:a2:a5:42:e9:21:da:9e:09:bf:92:fb:c5:6c:
                    2f:66:5c:2e:70:0d:57:ba:d9
                Exponent: 65537 (0x10001)
        X509v3 extensions:
            X509v3 Subject Key Identifier: 
                07:CF:B4:43:8C:DE:CC:B4:74:28:2D:D8:BF:FA:9F:18:EE:39:0C:45
            X509v3 Authority Key Identifier: 
                keyid:53:F1:FD:4D:EA:B0:B0:9B:2D:06:0A:13:F2:FD:91:FC:01:B6:1A:40

            X509v3 Basic Constraints: 
                CA:TRUE
    Signature Algorithm: sha1WithRSAEncryption
        44:7b:46:04:4e:ea:11:9a:e3:42:fa:ea:2b:f5:5c:0d:51:89:
        4b:26:b7:1a:f9:ed:15:54:2d:39:2f:24:69:3c:7d:0c:c4:2a:
        69:19:12:4b:84:ef:9f:64:ef:17:7f:38:ce:32:ce:e7:76:bd:
        45:f4:c2:de:f3:60:2a:75:d7:00:d2:01:30:c1:d4:0b:62:e8:
        a4:18:6a:62:f1:2f:06:e2:14:a8:07:11:e5:4d:9c:d7:8d:73:
        56:c5:ed:52:07:55:f0:19:5d:55:4e:98:2a:cf:32:48:98:22:
        3a:81:53:27:b8:b4:36:58:68:93:31:87:07:f9:75:97:f1:90:
        db:29
-----BEGIN CERTIFICATE-----
MIICbTCCAdagAwIBAgIJAOSb5YRiCVS6MA0GCSqGSIb3DQEBBQUAMEAxCzAJBgNV
BAYTAlVTMREwDwYDVQQIDAhOZXcgWW9yazEOMAwGA1UECgwFQmFzaG8xDjAMBgNV
BAMMBU15IENBMB4XDTEyMDQxMDIxNDI1MFoXDTEzMDQxMDIxNDI1MFowXzELMAkG
A1UEBhMCVVMxETAPBgNVBAgMCE5ldyBZb3JrMRAwDgYDVQQHDAdQb3RzZGFtMQ4w
DAYDVQQKDAVCYXNobzEbMBkGA1UEAwwSTXkgaW50ZXJtZWRpYXRlIENBMIGfMA0G
CSqGSIb3DQEBAQUAA4GNADCBiQKBgQC98RtXq5PPALr10/2KV0n89rXvk2Mx+5Ne
SyomKeayRDhDRdgXw+qWaAqYj5eKoWInYhXAQVgY+3R9IqwPaK3v5eUN7h0Wtfef
suTyoGXT5svsVZSOrbLo1K7cyGM1mXAnwoWOKBPBRz8ToqVC6SHangm/kvvFbC9m
XC5wDVe62QIDAQABo1AwTjAdBgNVHQ4EFgQUB8+0Q4zezLR0KC3Yv/qfGO45DEUw
HwYDVR0jBBgwFoAUU/H9TeqwsJstBgoT8v2R/AG2GkAwDAYDVR0TBAUwAwEB/zAN
BgkqhkiG9w0BAQUFAAOBgQBEe0YETuoRmuNC+uor9VwNUYlLJrca+e0VVC05LyRp
PH0MxCppGRJLhO+fZO8XfzjOMs7ndr1F9MLe82AqddcA0gEwwdQLYuikGGpi8S8G
4hSoBxHlTZzXjXNWxe1SB1XwGV1VTpgqzzJImCI6gVMnuLQ2WGiTMYcH+XWX8ZDb
KQ==
-----END CERTIFICATE-----
