Certificate:
    Data:
        Version: 3 (0x2)
        Serial Number:
            e4:9b:e5:84:62:09:54:b9
        Signature Algorithm: sha1WithRSAEncryption
        Issuer: C=US, ST=New York, O=Basho, CN=My CA
        Validity
            Not Before: Apr 10 21:42:15 2012 GMT
            Not After : Apr 10 21:42:15 2015 GMT
        Subject: C=US, ST=New York, O=Basho, CN=My CA
        Subject Public Key Info:
            Public Key Algorithm: rsaEncryption
                Public-Key: (1024 bit)
                Modulus:
                    00:ad:2c:9b:a4:32:72:42:25:70:07:f7:86:7d:cd:
                    46:c9:45:f2:4b:99:f4:0e:03:0c:e7:ab:d8:5b:1e:
                    8c:43:4f:16:da:b9:eb:bf:a8:3e:8e:da:1e:73:c8:
                    b9:ae:4d:38:69:c9:4f:f7:6a:18:f0:31:4e:d8:3f:
                    34:3a:60:17:51:93:82:6e:2a:96:39:ad:c6:a4:ac:
                    43:52:4b:f7:bc:e3:7a:ac:a1:f8:4a:cd:b6:67:80:
                    8d:41:6d:87:c2:87:b6:50:ac:11:eb:06:a9:a1:8b:
                    e8:cd:fe:a7:94:9c:6f:fa:6d:72:1d:b1:7a:ba:c4:
                    f9:44:6e:2b:ac:a5:d7:c1:75
                Exponent: 65537 (0x10001)
        X509v3 extensions:
            X509v3 Subject Key Identifier: 
                53:F1:FD:4D:EA:B0:B0:9B:2D:06:0A:13:F2:FD:91:FC:01:B6:1A:40
            X509v3 Authority Key Identifier: 
                keyid:53:F1:FD:4D:EA:B0:B0:9B:2D:06:0A:13:F2:FD:91:FC:01:B6:1A:40

            X509v3 Basic Constraints: 
                CA:TRUE
    Signature Algorithm: sha1WithRSAEncryption
        84:a9:aa:df:04:eb:f8:7e:be:0d:9f:1d:77:cc:c6:d1:53:2d:
        91:4e:cb:dc:65:fd:a3:58:81:1a:85:f3:e5:50:a8:91:b4:04:
        ac:f6:7c:17:e4:4a:2b:2a:11:95:1c:cf:c3:c4:9a:fd:d8:f9:
        aa:a7:98:67:b6:c5:77:bf:51:49:f1:cf:ba:80:1a:f9:70:ac:
        9f:95:c8:43:36:c8:92:a7:da:c2:f0:70:66:30:dc:cd:9f:51:
        a8:c4:8f:51:91:cd:cb:80:fb:9d:4d:d0:6e:be:c2:a1:be:78:
        e2:37:48:6c:e6:d7:27:03:5e:83:c1:65:05:87:02:d1:0d:63:
        de:11
-----BEGIN CERTIFICATE-----
MIICTjCCAbegAwIBAgIJAOSb5YRiCVS5MA0GCSqGSIb3DQEBBQUAMEAxCzAJBgNV
BAYTAlVTMREwDwYDVQQIDAhOZXcgWW9yazEOMAwGA1UECgwFQmFzaG8xDjAMBgNV
BAMMBU15IENBMB4XDTEyMDQxMDIxNDIxNVoXDTE1MDQxMDIxNDIxNVowQDELMAkG
A1UEBhMCVVMxETAPBgNVBAgMCE5ldyBZb3JrMQ4wDAYDVQQKDAVCYXNobzEOMAwG
A1UEAwwFTXkgQ0EwgZ8wDQYJKoZIhvcNAQEBBQADgY0AMIGJAoGBAK0sm6QyckIl
cAf3hn3NRslF8kuZ9A4DDOer2FsejENPFtq567+oPo7aHnPIua5NOGnJT/dqGPAx
Ttg/NDpgF1GTgm4qljmtxqSsQ1JL97zjeqyh+ErNtmeAjUFth8KHtlCsEesGqaGL
6M3+p5Scb/ptch2xerrE+URuK6yl18F1AgMBAAGjUDBOMB0GA1UdDgQWBBRT8f1N
6rCwmy0GChPy/ZH8AbYaQDAfBgNVHSMEGDAWgBRT8f1N6rCwmy0GChPy/ZH8AbYa
QDAMBgNVHRMEBTADAQH/MA0GCSqGSIb3DQEBBQUAA4GBAISpqt8E6/h+vg2fHXfM
xtFTLZFOy9xl/aNYgRqF8+VQqJG0BKz2fBfkSisqEZUcz8PEmv3Y+aqnmGe2xXe/
UUnxz7qAGvlwrJ+VyEM2yJKn2sLwcGYw3M2fUajEj1GRzcuA+51N0G6+wqG+eOI3
SGzm1ycDXoPBZQWHAtENY94R
-----END CERTIFICATE-----
