Certificate:
    Data:
        Version: 3 (0x2)
        Serial Number:
            e4:9b:e5:84:62:09:54:bc
        Signature Algorithm: sha1WithRSAEncryption
        Issuer: C=US, ST=New York, O=Basho, CN=My CA
        Validity
            Not Before: Apr 19 18:06:55 2012 GMT
            Not After : Apr 19 18:06:55 2013 GMT
        Subject: C=US, ST=New York, L=Potsdam, O=Basho, CN=site3.basho.com
        Subject Public Key Info:
            Public Key Algorithm: rsaEncryption
                Public-Key: (1024 bit)
                Modulus:
                    00:bb:2f:75:f3:c3:cd:b4:3f:d3:d6:3b:44:74:c4:
                    1a:8d:6f:52:de:6c:b7:c7:87:37:31:c1:b5:e7:ff:
                    cf:38:95:2e:ed:5a:a3:f6:3a:cd:b7:07:ba:c1:92:
                    e2:cb:ed:2a:b3:ca:30:5e:02:40:d1:14:a1:aa:59:
                    1e:4e:db:89:a8:8a:73:84:9e:b2:28:f1:86:71:09:
                    71:bf:6f:21:0b:8f:ec:33:37:34:b8:5d:71:92:6e:
                    31:d6:95:f8:1d:fc:da:03:75:fa:c5:47:e9:eb:ba:
                    f2:84:5e:a7:8c:05:b0:34:eb:c8:b3:cb:6e:28:26:
                    ab:4d:c2:8b:84:ae:f9:dd:99
                Exponent: 65537 (0x10001)
        X509v3 extensions:
            X509v3 Basic Constraints: 
                CA:FALSE
            Netscape Comment: 
                OpenSSL Generated Certificate
            X509v3 Subject Key Identifier: 
                B9:DE:00:04:2B:22:DD:C7:10:FA:F1:AF:62:FF:6C:E4:67:41:1D:30
            X509v3 Authority Key Identifier: 
                keyid:53:F1:FD:4D:EA:B0:B0:9B:2D:06:0A:13:F2:FD:91:FC:01:B6:1A:40

    Signature Algorithm: sha1WithRSAEncryption
        a9:00:2a:80:8b:4a:af:5c:4f:1a:79:12:4c:aa:56:6a:76:9b:
        d4:fd:bd:56:bb:47:28:a1:5a:27:61:8f:9c:d1:c6:e2:aa:e8:
        32:c4:a6:07:d9:81:92:20:e3:82:44:9a:37:79:5a:b8:36:cf:
        c0:1d:12:95:87:1c:0a:d1:ef:4a:66:64:2b:99:45:0e:6c:52:
        a7:8b:50:b2:e6:b7:f9:39:ab:23:42:bc:db:3f:80:5d:eb:c4:
        ca:83:3d:32:05:2a:9f:fe:d4:23:77:f3:a1:46:25:3f:59:01:
        a1:5c:7c:70:c9:ad:8e:57:49:78:4f:12:2a:04:cd:4d:4b:54:
        53:5c
-----BEGIN CERTIFICATE-----
MIIClTCCAf6gAwIBAgIJAOSb5YRiCVS8MA0GCSqGSIb3DQEBBQUAMEAxCzAJBgNV
BAYTAlVTMREwDwYDVQQIDAhOZXcgWW9yazEOMAwGA1UECgwFQmFzaG8xDjAMBgNV
BAMMBU15IENBMB4XDTEyMDQxOTE4MDY1NVoXDTEzMDQxOTE4MDY1NVowXDELMAkG
A1UEBhMCVVMxETAPBgNVBAgMCE5ldyBZb3JrMRAwDgYDVQQHDAdQb3RzZGFtMQ4w
DAYDVQQKDAVCYXNobzEYMBYGA1UEAwwPc2l0ZTMuYmFzaG8uY29tMIGfMA0GCSqG
SIb3DQEBAQUAA4GNADCBiQKBgQC7L3Xzw820P9PWO0R0xBqNb1LebLfHhzcxwbXn
/884lS7tWqP2Os23B7rBkuLL7SqzyjBeAkDRFKGqWR5O24moinOEnrIo8YZxCXG/
byELj+wzNzS4XXGSbjHWlfgd/NoDdfrFR+nruvKEXqeMBbA068izy24oJqtNwouE
rvndmQIDAQABo3sweTAJBgNVHRMEAjAAMCwGCWCGSAGG+EIBDQQfFh1PcGVuU1NM
IEdlbmVyYXRlZCBDZXJ0aWZpY2F0ZTAdBgNVHQ4EFgQUud4ABCsi3ccQ+vGvYv9s
5GdBHTAwHwYDVR0jBBgwFoAUU/H9TeqwsJstBgoT8v2R/AG2GkAwDQYJKoZIhvcN
AQEFBQADgYEAqQAqgItKr1xPGnkSTKpWanab1P29VrtHKKFaJ2GPnNHG4qroMsSm
B9mBkiDjgkSaN3lauDbPwB0SlYccCtHvSmZkK5lFDmxSp4tQsua3+TmrI0K82z+A
XevEyoM9MgUqn/7UI3fzoUYlP1kBoVx8cMmtjldJeE8SKgTNTUtUU1w=
-----END CERTIFICATE-----
