Certificate:
    Data:
        Version: 3 (0x2)
        Serial Number: 16473012418780943549 (0xe49be584620954bd)
    Signature Algorithm: sha1WithRSAEncryption
        Issuer: C=US, ST=New York, O=Basho, CN=My CA
        Validity
            Not Before: Aug  3 03:57:26 2012 GMT
            Not After : Aug  3 03:57:26 2013 GMT
        Subject: C=US, ST=New York, L=Potsdam, O=Basho, CN=site4.basho.com
        Subject Public Key Info:
            Public Key Algorithm: rsaEncryption
                Public-Key: (1024 bit)
                Modulus:
                    00:f0:85:32:69:21:a7:cd:cb:51:4d:22:b0:ae:12:
                    98:6b:6b:7d:06:00:18:ec:5a:b9:8b:af:9d:0d:6b:
                    3a:bf:3f:f2:82:35:9c:2a:f9:ec:eb:60:46:39:cb:
                    f0:8c:ce:7e:3a:30:34:79:1f:a9:e0:5d:2d:75:f2:
                    a1:22:b7:d4:c2:ac:74:70:9b:5d:44:eb:0e:ae:b4:
                    ff:e5:28:47:e5:db:66:2a:06:7e:4e:05:f7:9a:79:
                    a3:59:f7:71:73:b2:85:15:55:f6:d7:df:26:d0:c6:
                    7e:4c:9e:d3:a5:27:8a:24:a2:13:f4:6b:1c:ee:95:
                    86:a2:0c:ac:64:22:7c:07:9f
                Exponent: 65537 (0x10001)
        X509v3 extensions:
            X509v3 Basic Constraints: 
                CA:FALSE
            Netscape Comment: 
                OpenSSL Generated Certificate
            X509v3 Subject Key Identifier: 
                56:68:9B:7A:57:2D:10:CB:F1:8E:AD:71:23:54:62:C6:1D:D6:F5:33
            X509v3 Authority Key Identifier: 
                keyid:53:F1:FD:4D:EA:B0:B0:9B:2D:06:0A:13:F2:FD:91:FC:01:B6:1A:40

    Signature Algorithm: sha1WithRSAEncryption
         a6:9d:aa:3a:a5:4d:cf:54:30:7e:41:43:f4:e5:bf:2c:1d:28:
         e1:1c:d2:72:ed:07:de:6a:c2:aa:35:41:70:7e:cb:10:a6:82:
         c2:c0:4c:60:bb:d2:ad:23:70:2d:03:57:f6:78:f2:5f:0b:f0:
         e6:28:cb:ad:55:99:4c:49:5f:82:97:57:84:35:b1:db:e6:d3:
         40:7a:75:3c:70:04:26:db:79:32:db:dc:14:65:4c:cf:a6:e3:
         c9:dd:f6:6c:84:b2:16:c8:cd:2f:96:f0:fc:88:b7:1a:04:64:
         a3:b0:27:6d:21:d4:b0:7b:f5:23:17:7e:87:8d:01:18:e9:ee:
         65:35
-----BEGIN CERTIFICATE-----
MIIClTCCAf6gAwIBAgIJAOSb5YRiCVS9MA0GCSqGSIb3DQEBBQUAMEAxCzAJBgNV
BAYTAlVTMREwDwYDVQQIDAhOZXcgWW9yazEOMAwGA1UECgwFQmFzaG8xDjAMBgNV
BAMMBU15IENBMB4XDTEyMDgwMzAzNTcyNloXDTEzMDgwMzAzNTcyNlowXDELMAkG
A1UEBhMCVVMxETAPBgNVBAgMCE5ldyBZb3JrMRAwDgYDVQQHDAdQb3RzZGFtMQ4w
DAYDVQQKDAVCYXNobzEYMBYGA1UEAwwPc2l0ZTQuYmFzaG8uY29tMIGfMA0GCSqG
SIb3DQEBAQUAA4GNADCBiQKBgQDwhTJpIafNy1FNIrCuEphra30GABjsWrmLr50N
azq/P/KCNZwq+ezrYEY5y/CMzn46MDR5H6ngXS118qEit9TCrHRwm11E6w6utP/l
KEfl22YqBn5OBfeaeaNZ93FzsoUVVfbX3ybQxn5MntOlJ4okohP0axzulYaiDKxk
InwHnwIDAQABo3sweTAJBgNVHRMEAjAAMCwGCWCGSAGG+EIBDQQfFh1PcGVuU1NM
IEdlbmVyYXRlZCBDZXJ0aWZpY2F0ZTAdBgNVHQ4EFgQUVmibelctEMvxjq1xI1Ri
xh3W9TMwHwYDVR0jBBgwFoAUU/H9TeqwsJstBgoT8v2R/AG2GkAwDQYJKoZIhvcN
AQEFBQADgYEApp2qOqVNz1QwfkFD9OW/LB0o4RzScu0H3mrCqjVBcH7LEKaCwsBM
YLvSrSNwLQNX9njyXwvw5ijLrVWZTElfgpdXhDWx2+bTQHp1PHAEJtt5MtvcFGVM
z6bjyd32bISyFsjNL5bw/Ii3GgRko7AnbSHUsHv1Ixd+h40BGOnuZTU=
-----END CERTIFICATE-----
