Certificate:
    Data:
        Version: 3 (0x2)
        Serial Number:
            b2:50:76:30:72:3a:36:e5
        Signature Algorithm: sha1WithRSAEncryption
        Issuer: C=US, ST=New York, L=Potsdam, O=Basho, CN=My intermediate CA
        Validity
            Not Before: Apr 10 21:54:38 2012 GMT
            Not After : Apr 10 21:54:38 2013 GMT
        Subject: C=US, ST=New York, L=Potsdam, O=Basho, CN=site1.basho.com
        Subject Public Key Info:
            Public Key Algorithm: rsaEncryption
                Public-Key: (1024 bit)
                Modulus:
                    00:b9:9f:9b:ec:62:b9:3d:8c:c6:ec:0a:f1:10:87:
                    78:bf:96:a9:03:76:3d:88:04:32:c6:b2:e1:73:d9:
                    c4:c0:0a:b9:5d:86:62:93:ad:4d:eb:03:8a:df:2e:
                    a0:34:7d:ee:ae:4f:6d:89:93:9c:b1:99:9f:31:fa:
                    e5:4f:66:36:c2:78:4a:ed:c1:56:97:77:1d:3c:08:
                    49:4a:32:b2:f6:63:1b:e1:64:a0:a9:4f:83:0f:6a:
                    37:3b:4a:83:9b:e1:81:43:ad:4b:79:f6:9c:bf:4a:
                    b2:68:a6:66:aa:37:84:e7:91:5a:28:81:2e:5a:45:
                    0c:41:9d:32:6e:df:86:00:8f
                Exponent: 65537 (0x10001)
        X509v3 extensions:
            X509v3 Basic Constraints: 
                CA:FALSE
            Netscape Comment: 
                OpenSSL Generated Certificate
            X509v3 Subject Key Identifier: 
                63:B1:B5:EB:6D:64:5C:49:82:D0:60:87:4B:05:B3:68:08:0A:7A:9C
            X509v3 Authority Key Identifier: 
                keyid:07:CF:B4:43:8C:DE:CC:B4:74:28:2D:D8:BF:FA:9F:18:EE:39:0C:45

    Signature Algorithm: sha1WithRSAEncryption
        25:c0:05:2b:e3:23:c0:91:c9:de:fc:0c:07:31:a8:0f:67:94:
        87:dd:85:88:4f:ef:da:2d:4d:5b:e2:0b:06:ba:6c:70:82:82:
        11:5a:8c:cd:75:95:03:7a:37:6f:56:93:11:68:6c:20:a5:6b:
        b4:b1:90:f0:8e:be:8d:16:ff:ae:d2:3e:35:2a:18:d9:49:54:
        d2:e2:54:cf:8c:31:eb:4e:4d:3a:6f:90:d3:51:b8:de:a4:1a:
        ed:9c:50:6a:2e:f3:6b:63:3b:86:fd:08:1d:12:41:26:3a:fd:
        29:2c:57:d1:2d:d7:af:ff:ca:2e:05:09:99:e7:e3:64:d8:19:
        ad:0e
-----BEGIN CERTIFICATE-----
MIICtDCCAh2gAwIBAgIJALJQdjByOjblMA0GCSqGSIb3DQEBBQUAMF8xCzAJBgNV
BAYTAlVTMREwDwYDVQQIDAhOZXcgWW9yazEQMA4GA1UEBwwHUG90c2RhbTEOMAwG
A1UECgwFQmFzaG8xGzAZBgNVBAMMEk15IGludGVybWVkaWF0ZSBDQTAeFw0xMjA0
MTAyMTU0MzhaFw0xMzA0MTAyMTU0MzhaMFwxCzAJBgNVBAYTAlVTMREwDwYDVQQI
DAhOZXcgWW9yazEQMA4GA1UEBwwHUG90c2RhbTEOMAwGA1UECgwFQmFzaG8xGDAW
BgNVBAMMD3NpdGUxLmJhc2hvLmNvbTCBnzANBgkqhkiG9w0BAQEFAAOBjQAwgYkC
gYEAuZ+b7GK5PYzG7ArxEId4v5apA3Y9iAQyxrLhc9nEwAq5XYZik61N6wOK3y6g
NH3urk9tiZOcsZmfMfrlT2Y2wnhK7cFWl3cdPAhJSjKy9mMb4WSgqU+DD2o3O0qD
m+GBQ61Lefacv0qyaKZmqjeE55FaKIEuWkUMQZ0ybt+GAI8CAwEAAaN7MHkwCQYD
VR0TBAIwADAsBglghkgBhvhCAQ0EHxYdT3BlblNTTCBHZW5lcmF0ZWQgQ2VydGlm
aWNhdGUwHQYDVR0OBBYEFGOxtettZFxJgtBgh0sFs2gICnqcMB8GA1UdIwQYMBaA
FAfPtEOM3sy0dCgt2L/6nxjuOQxFMA0GCSqGSIb3DQEBBQUAA4GBACXABSvjI8CR
yd78DAcxqA9nlIfdhYhP79otTVviCwa6bHCCghFajM11lQN6N29WkxFobCCla7Sx
kPCOvo0W/67SPjUqGNlJVNLiVM+MMetOTTpvkNNRuN6kGu2cUGou82tjO4b9CB0S
QSY6/SksV9Et16//yi4FCZnn42TYGa0O
-----END CERTIFICATE-----
