Certificate:
    Data:
        Version: 3 (0x2)
        Serial Number:
            b2:50:76:30:72:3a:36:e6
        Signature Algorithm: sha1WithRSAEncryption
        Issuer: C=US, ST=New York, L=Potsdam, O=Basho, CN=My intermediate CA
        Validity
            Not Before: Apr 10 21:57:10 2012 GMT
            Not After : Apr 10 21:57:10 2013 GMT
        Subject: C=US, ST=New York, L=Potsdam, O=Basho, CN=site2.basho.com
        Subject Public Key Info:
            Public Key Algorithm: rsaEncryption
                Public-Key: (1024 bit)
                Modulus:
                    00:ca:5b:50:6c:82:3a:83:fe:57:0b:52:2c:1b:90:
                    98:e3:58:40:6d:32:9a:56:7c:b9:03:1d:d8:3b:af:
                    6e:69:b0:46:0e:d7:00:95:cb:c8:0e:c4:f0:90:5b:
                    a6:a2:22:f1:ab:8c:25:45:62:68:52:24:84:0a:14:
                    8f:d5:4d:61:68:c8:c5:73:59:c7:17:57:fd:ba:f8:
                    b9:ad:fe:a8:c1:ff:69:ee:21:bf:77:4f:10:cb:24:
                    01:1e:2f:3c:6b:72:13:80:8b:46:1b:51:6b:c5:c4:
                    b0:23:47:b3:87:85:88:39:11:ff:29:00:d7:23:50:
                    c5:ce:67:d4:d7:d1:4d:26:0f
                Exponent: 65537 (0x10001)
        X509v3 extensions:
            X509v3 Basic Constraints: 
                CA:FALSE
            Netscape Comment: 
                OpenSSL Generated Certificate
            X509v3 Subject Key Identifier: 
                9C:08:D5:01:F1:67:0A:57:3A:63:68:2E:AB:64:2D:7B:E3:1B:2B:A5
            X509v3 Authority Key Identifier: 
                keyid:07:CF:B4:43:8C:DE:CC:B4:74:28:2D:D8:BF:FA:9F:18:EE:39:0C:45

    Signature Algorithm: sha1WithRSAEncryption
        0c:f3:2d:05:36:0d:4b:5e:73:c7:6c:fd:62:8c:d6:de:06:c7:
        6c:c1:99:b2:14:f7:1b:4c:20:37:8b:1e:55:f5:ea:ec:3f:34:
        44:73:fb:a6:40:3a:ec:72:1c:08:1c:01:e4:68:b4:a7:f5:5a:
        0e:5b:f2:40:c7:a8:4f:6f:5e:66:17:6c:ed:3a:25:ab:0a:9d:
        70:e2:41:f7:77:51:82:de:14:e5:b2:7a:bd:27:72:93:4e:20:
        65:25:96:3c:af:bf:6b:39:e8:07:52:5f:3b:4d:25:4c:2e:a3:
        af:13:56:80:7d:bf:65:38:88:64:ab:7b:7b:8e:b4:07:e0:8b:
        11:3a
-----BEGIN CERTIFICATE-----
MIICtDCCAh2gAwIBAgIJALJQdjByOjbmMA0GCSqGSIb3DQEBBQUAMF8xCzAJBgNV
BAYTAlVTMREwDwYDVQQIDAhOZXcgWW9yazEQMA4GA1UEBwwHUG90c2RhbTEOMAwG
A1UECgwFQmFzaG8xGzAZBgNVBAMMEk15IGludGVybWVkaWF0ZSBDQTAeFw0xMjA0
MTAyMTU3MTBaFw0xMzA0MTAyMTU3MTBaMFwxCzAJBgNVBAYTAlVTMREwDwYDVQQI
DAhOZXcgWW9yazEQMA4GA1UEBwwHUG90c2RhbTEOMAwGA1UECgwFQmFzaG8xGDAW
BgNVBAMMD3NpdGUyLmJhc2hvLmNvbTCBnzANBgkqhkiG9w0BAQEFAAOBjQAwgYkC
gYEAyltQbII6g/5XC1IsG5CY41hAbTKaVny5Ax3YO69uabBGDtcAlcvIDsTwkFum
oiLxq4wlRWJoUiSEChSP1U1haMjFc1nHF1f9uvi5rf6owf9p7iG/d08QyyQBHi88
a3ITgItGG1FrxcSwI0ezh4WIORH/KQDXI1DFzmfU19FNJg8CAwEAAaN7MHkwCQYD
VR0TBAIwADAsBglghkgBhvhCAQ0EHxYdT3BlblNTTCBHZW5lcmF0ZWQgQ2VydGlm
aWNhdGUwHQYDVR0OBBYEFJwI1QHxZwpXOmNoLqtkLXvjGyulMB8GA1UdIwQYMBaA
FAfPtEOM3sy0dCgt2L/6nxjuOQxFMA0GCSqGSIb3DQEBBQUAA4GBAAzzLQU2DUte
c8ds/WKM1t4Gx2zBmbIU9xtMIDeLHlX16uw/NERz+6ZAOuxyHAgcAeRotKf1Wg5b
8kDHqE9vXmYXbO06JasKnXDiQfd3UYLeFOWyer0ncpNOIGUlljyvv2s56AdSXztN
JUwuo68TVoB9v2U4iGSre3uOtAfgixE6
-----END CERTIFICATE-----
